target datalayout = "e-m:e-p270:32:32-p271:32:32-p272:64:64-i64:64-i128:128-f80:128-n8:16:32:64-S128"
target triple = "x86_64-pc-linux-gnu"

%struct.Agdesc_s = type { i8, [3 x i8] }
%struct.Agobj_s = type { %struct.Agtag_s, ptr }
%struct.Agtag_s = type { i32, i64 }
%struct.Agraph_s = type { %struct.Agobj_s, %struct.Agdesc_s, %struct.dtlink_s_, %struct.dtlink_s_, ptr, ptr, ptr, ptr, ptr, ptr, ptr, ptr, ptr }
%struct.dtlink_s_ = type { ptr, %union.anon }
%union.anon = type { ptr }

; Function Attrs: nounwind uwtable
define i32 @agissimple(ptr noundef %0) #0 {
  %2 = alloca ptr, align 8
  store ptr %0, ptr %2, align 8, !tbaa !12
  %3 = load ptr, ptr %2, align 8, !tbaa !12
  %4 = getelementptr inbounds nuw %struct.Agraph_s, ptr %3, i32 0, i32 1
  %5 = load i8, ptr %4, align 8
  %6 = lshr i8 %5, 1
  %7 = and i8 %6, 1
  %8 = zext i8 %7 to i32
  %9 = icmp ne i32 %8, 0
  br i1 %9, label %10, label %18

10:                                               ; preds = %1
  %11 = load ptr, ptr %2, align 8, !tbaa !12
  %12 = getelementptr inbounds nuw %struct.Agraph_s, ptr %11, i32 0, i32 1
  %13 = load i8, ptr %12, align 8
  %14 = lshr i8 %13, 2
  %15 = and i8 %14, 1
  %16 = zext i8 %15 to i32
  %17 = icmp ne i32 %16, 0
  br label %18

18:                                               ; preds = %10, %1
  %19 = phi i1 [ false, %1 ], [ %17, %10 ]
  %20 = zext i1 %19 to i32
  ret i32 %20
}