; Function Attrs: mustprogress nofree norecurse nosync nounwind willreturn memory(argmem: read) uwtable
define range(i32 0, 2) i32 @agissimple(ptr noundef readonly captures(none) %0) local_unnamed_addr #5 {
  %2 = getelementptr inbounds nuw i8, ptr %0, i64 24
  %3 = load i8, ptr %2, align 8
  %4 = and i8 %3, 2
  %.not = icmp eq i8 %4, 0
  %5 = lshr i8 %3, 2
  %.lobit = and i8 %5, 1
  %narrow = select i1 %.not, i8 0, i8 %.lobit
  %6 = zext nneg i8 %narrow to i32
  ret i32 %6
}